; ModuleID = '12/767.c'
source_filename = "12/767.c"
target datalayout = "e-m:e-p270:32:32-p271:32:32-p272:64:64-i64:64-f80:128-n8:16:32:64-S128"
target triple = "x86_64-pc-linux-gnu"

@.str = private unnamed_addr constant [3 x i8] c"%d\00", align 1
@.str.1 = private unnamed_addr constant [4 x i8] c"%d\0A\00", align 1

; Function Attrs: noinline nounwind uwtable
define dso_local i32 @main(i32 %0, i8** %1) #0 {
  %3 = alloca i32, align 4
  %4 = alloca i32, align 4
  %5 = alloca i8**, align 8
  %6 = alloca [16 x i32], align 16
  %7 = alloca i32, align 4
  %8 = alloca i32, align 4
  %9 = alloca i32, align 4
  %10 = alloca i32, align 4
  store i32 0, i32* %3, align 4
  store i32 %0, i32* %4, align 4
  store i8** %1, i8*** %5, align 8
  br label %11

11:                                               ; preds = %77, %2
  store i32 0, i32* %10, align 4
  %12 = getelementptr inbounds [16 x i32], [16 x i32]* %6, i64 0, i64 0
  %13 = call i32 (i8*, ...) @__isoc99_scanf(i8* getelementptr inbounds ([3 x i8], [3 x i8]* @.str, i64 0, i64 0), i32* %12)
  %14 = getelementptr inbounds [16 x i32], [16 x i32]* %6, i64 0, i64 0
  %15 = load i32, i32* %14, align 16
  %16 = icmp eq i32 %15, -1
  br i1 %16, label %17, label %18

17:                                               ; preds = %11
  br label %80

18:                                               ; preds = %11
  store i32 1, i32* %7, align 4
  br label %19

19:                                               ; preds = %34, %18
  %20 = load i32, i32* %7, align 4
  %21 = icmp slt i32 %20, 16
  br i1 %21, label %22, label %37

22:                                               ; preds = %19
  %23 = load i32, i32* %7, align 4
  %24 = sext i32 %23 to i64
  %25 = getelementptr inbounds [16 x i32], [16 x i32]* %6, i64 0, i64 %24
  %26 = call i32 (i8*, ...) @__isoc99_scanf(i8* getelementptr inbounds ([3 x i8], [3 x i8]* @.str, i64 0, i64 0), i32* %25)
  %27 = load i32, i32* %7, align 4
  %28 = sext i32 %27 to i64
  %29 = getelementptr inbounds [16 x i32], [16 x i32]* %6, i64 0, i64 %28
  %30 = load i32, i32* %29, align 4
  %31 = icmp eq i32 %30, 0
  br i1 %31, label %32, label %33

32:                                               ; preds = %22
  br label %37

33:                                               ; preds = %22
  br label %34

34:                                               ; preds = %33
  %35 = load i32, i32* %7, align 4
  %36 = add nsw i32 %35, 1
  store i32 %36, i32* %7, align 4
  br label %19

37:                                               ; preds = %32, %19
  store i32 0, i32* %8, align 4
  br label %38

38:                                               ; preds = %74, %37
  %39 = load i32, i32* %8, align 4
  %40 = load i32, i32* %7, align 4
  %41 = icmp slt i32 %39, %40
  br i1 %41, label %42, label %77

42:                                               ; preds = %38
  %43 = load i32, i32* %8, align 4
  %44 = sext i32 %43 to i64
  %45 = getelementptr inbounds [16 x i32], [16 x i32]* %6, i64 0, i64 %44
  %46 = load i32, i32* %45, align 4
  %47 = srem i32 %46, 2
  %48 = icmp eq i32 %47, 0
  br i1 %48, label %49, label %73

49:                                               ; preds = %42
  store i32 0, i32* %9, align 4
  br label %50

50:                                               ; preds = %69, %49
  %51 = load i32, i32* %9, align 4
  %52 = load i32, i32* %7, align 4
  %53 = icmp slt i32 %51, %52
  br i1 %53, label %54, label %72

54:                                               ; preds = %50
  %55 = load i32, i32* %8, align 4
  %56 = sext i32 %55 to i64
  %57 = getelementptr inbounds [16 x i32], [16 x i32]* %6, i64 0, i64 %56
  %58 = load i32, i32* %57, align 4
  %59 = sdiv i32 %58, 2
  %60 = load i32, i32* %9, align 4
  %61 = sext i32 %60 to i64
  %62 = getelementptr inbounds [16 x i32], [16 x i32]* %6, i64 0, i64 %61
  %63 = load i32, i32* %62, align 4
  %64 = icmp eq i32 %59, %63
  br i1 %64, label %65, label %68

65:                                               ; preds = %54
  %66 = load i32, i32* %10, align 4
  %67 = add nsw i32 %66, 1
  store i32 %67, i32* %10, align 4
  br label %68

68:                                               ; preds = %65, %54
  br label %69

69:                                               ; preds = %68
  %70 = load i32, i32* %9, align 4
  %71 = add nsw i32 %70, 1
  store i32 %71, i32* %9, align 4
  br label %50

72:                                               ; preds = %50
  br label %73

73:                                               ; preds = %72, %42
  br label %74

74:                                               ; preds = %73
  %75 = load i32, i32* %8, align 4
  %76 = add nsw i32 %75, 1
  store i32 %76, i32* %8, align 4
  br label %38

77:                                               ; preds = %38
  %78 = load i32, i32* %10, align 4
  %79 = call i32 (i8*, ...) @printf(i8* getelementptr inbounds ([4 x i8], [4 x i8]* @.str.1, i64 0, i64 0), i32 %78)
  br label %11

80:                                               ; preds = %17
  ret i32 0
}

declare dso_local i32 @__isoc99_scanf(i8*, ...) #1

declare dso_local i32 @printf(i8*, ...) #1


!llvm.module.flags = !{!0}
!llvm.ident = !{!1}

!0 = !{i32 1, !"wchar_size", i32 4}
!1 = !{!"clang version 10.0.0-4ubuntu1 "}
